(dp0
S'max'
p1
(lp2
S'28'
p3
aS'28'
p4
asS'min'
p5
(lp6
S'25'
p7
aS'25'
p8
as.(dp0
S'max'
p1
(lp2
S'28'
p3
aS'28'
p4
asS'min'
p5
(lp6
S'25'
p7
aS'25'
p8
as.(dp0
S'max'
p1
(lp2
S'28'
p3
aS'28'
p4
asS'min'
p5
(lp6
S'25'
p7
aS'25'
p8
as.(dp0
S'max'
p1
(lp2
S'28'
p3
aS'28'
p4
asS'min'
p5
(lp6
S'25'
p7
aS'25'
p8
as.(dp0
S'max'
p1
(lp2
S'28'
p3
aS'28'
p4
asS'min'
p5
(lp6
S'25'
p7
aS'25'
p8
as.