(dp0
S'max'
p1
(lp2
F1000.0
aF1000.0
aF1000.0
aF1000.0
aF1000.0
aF1000.0
aF1000.0
aF1000.0
aF1000.0
aF1000.0
asS'min'
p3
(lp4
F-1000.0
aF-1000.0
aF-1000.0
aF-1000.0
aF-1000.0
aF-1000.0
aF-1000.0
aF-1000.0
aF-1000.0
aF-1000.0
as.